; Function Attrs: mustprogress uwtable
define void @_ZN6duckdb15LambdaFunctions16BindBinaryLambdaEmRKNS_11LogicalTypeE(ptr dead_on_unwind noalias writable sret(%"struct.duckdb::LogicalType") align 8 %0, i64 noundef %1, ptr noundef nonnull align 8 dereferenceable(24) %2) local_unnamed_addr #3 align 2 personality ptr @__gxx_personality_v0 {
  %4 = alloca %"class.std::__cxx11::basic_string", align 8
  %5 = alloca %"class.std::allocator.71", align 1
  switch i64 %1, label %8 [
    i64 0, label %6
    i64 1, label %7
  ]

6:                                                ; preds = %3
  tail call void @_ZN6duckdb11LogicalTypeC1ERKS0_(ptr noundef nonnull align 8 dereferenceable(24) %0, ptr noundef nonnull align 8 dereferenceable(24) %2)
  br label %22

7:                                                ; preds = %3
  tail call void @_ZN6duckdb11LogicalTypeC1ENS_13LogicalTypeIdE(ptr noundef nonnull align 8 dereferenceable(24) %0, i8 noundef zeroext 14)
  br label %22

8:                                                ; preds = %3
  %9 = tail call ptr @__cxa_allocate_exception(i64 16) #22
  call void @llvm.lifetime.start.p0(i64 32, ptr nonnull %4) #22
  call void @llvm.lifetime.start.p0(i64 1, ptr nonnull %5) #22
  invoke void @_ZNSt7__cxx1112basic_stringIcSt11char_traitsIcESaIcEEC2EPKcRKS3_(ptr noundef nonnull align 8 dereferenceable(32) %4, ptr noundef nonnull @.str.3, ptr noundef nonnull align 1 dereferenceable(1) %5)
          to label %10 unwind label %_ZNSt7__cxx1112basic_stringIcSt11char_traitsIcESaIcEED2Ev.exit.thread

10:                                               ; preds = %8
  invoke void @_ZN6duckdb15BinderExceptionC1ERKNSt7__cxx1112basic_stringIcSt11char_traitsIcESaIcEEE(ptr noundef nonnull align 8 dereferenceable(16) %9, ptr noundef nonnull align 8 dereferenceable(32) %4)
          to label %11 unwind label %13

11:                                               ; preds = %10
  invoke void @__cxa_throw(ptr nonnull %9, ptr nonnull @_ZTIN6duckdb15BinderExceptionE, ptr nonnull @_ZNSt13runtime_errorD2Ev) #23
          to label %24 unwind label %13

_ZNSt7__cxx1112basic_stringIcSt11char_traitsIcESaIcEED2Ev.exit.thread: ; preds = %8
  %12 = landingpad { ptr, i32 }
          cleanup
  call void @llvm.lifetime.end.p0(i64 1, ptr nonnull %5) #22
  call void @llvm.lifetime.end.p0(i64 32, ptr nonnull %4) #22
  br label %21

13:                                               ; preds = %11, %10
  %.0 = phi i1 [ false, %11 ], [ true, %10 ]
  %14 = landingpad { ptr, i32 }
          cleanup
  %15 = load ptr, ptr %4, align 8, !tbaa !19
  %16 = getelementptr inbounds nuw i8, ptr %4, i64 16
  %17 = icmp eq ptr %15, %16
  br i1 %17, label %_ZNKSt7__cxx1112basic_stringIcSt11char_traitsIcESaIcEE11_M_is_localEv.exit.thread.i.i, label %_ZNSt7__cxx1112basic_stringIcSt11char_traitsIcESaIcEED2Ev.exit

_ZNKSt7__cxx1112basic_stringIcSt11char_traitsIcESaIcEE11_M_is_localEv.exit.thread.i.i: ; preds = %13
  %18 = getelementptr inbounds nuw i8, ptr %4, i64 8
  %19 = load i64, ptr %18, align 8, !tbaa !24
  %20 = icmp ult i64 %19, 16
  call void @llvm.assume(i1 %20)
  call void @llvm.lifetime.end.p0(i64 1, ptr nonnull %5) #22
  call void @llvm.lifetime.end.p0(i64 32, ptr nonnull %4) #22
  br i1 %.0, label %21, label %23

_ZNSt7__cxx1112basic_stringIcSt11char_traitsIcESaIcEED2Ev.exit: ; preds = %13
  call void @_ZdlPv(ptr noundef %15) #24
  call void @llvm.lifetime.end.p0(i64 1, ptr nonnull %5) #22
  call void @llvm.lifetime.end.p0(i64 32, ptr nonnull %4) #22
  br i1 %.0, label %21, label %23

21:                                               ; preds = %_ZNKSt7__cxx1112basic_stringIcSt11char_traitsIcESaIcEE11_M_is_localEv.exit.thread.i.i, %_ZNSt7__cxx1112basic_stringIcSt11char_traitsIcESaIcEED2Ev.exit.thread, %_ZNSt7__cxx1112basic_stringIcSt11char_traitsIcESaIcEED2Ev.exit
  %.pn10 = phi { ptr, i32 } [ %12, %_ZNSt7__cxx1112basic_stringIcSt11char_traitsIcESaIcEED2Ev.exit.thread ], [ %14, %_ZNSt7__cxx1112basic_stringIcSt11char_traitsIcESaIcEED2Ev.exit ], [ %14, %_ZNKSt7__cxx1112basic_stringIcSt11char_traitsIcESaIcEE11_M_is_localEv.exit.thread.i.i ]
  call void @__cxa_free_exception(ptr %9) #22
  br label %23

22:                                               ; preds = %7, %6
  ret void

23:                                               ; preds = %_ZNKSt7__cxx1112basic_stringIcSt11char_traitsIcESaIcEE11_M_is_localEv.exit.thread.i.i, %_ZNSt7__cxx1112basic_stringIcSt11char_traitsIcESaIcEED2Ev.exit, %21
  %.pn9 = phi { ptr, i32 } [ %14, %_ZNSt7__cxx1112basic_stringIcSt11char_traitsIcESaIcEED2Ev.exit ], [ %.pn10, %21 ], [ %14, %_ZNKSt7__cxx1112basic_stringIcSt11char_traitsIcESaIcEE11_M_is_localEv.exit.thread.i.i ]
  resume { ptr, i32 } %.pn9

24:                                               ; preds = %11
  unreachable
}